target datalayout = "e-m:e-p270:32:32-p271:32:32-p272:64:64-i64:64-i128:128-f80:128-n8:16:32:64-S128"
target triple = "x86_64-pc-linux-gnu"

@.str.1 = private unnamed_addr constant [1 x i8] zeroinitializer, align 1
@.str.2 = private unnamed_addr constant [2 x i8] c"0\00", align 1
@.str.3 = private unnamed_addr constant [3 x i8] c"0x\00", align 1
@.str.4 = private unnamed_addr constant [17 x i8] c"0123456789ABCDEF\00", align 1
@.str.5 = private unnamed_addr constant [17 x i8] c"0123456789abcdef\00", align 1

; Function Attrs: nounwind uwtable
define internal i32 @fmtint(ptr noundef %0, ptr noundef %1, ptr noundef %2, ptr noundef %3, i64 noundef %4, i32 noundef %5, i32 noundef %6, i32 noundef %7, i32 noundef %8) #0 {
  %10 = alloca i32, align 4
  %11 = alloca ptr, align 8
  %12 = alloca ptr, align 8
  %13 = alloca ptr, align 8
  %14 = alloca ptr, align 8
  %15 = alloca i64, align 8
  %16 = alloca i32, align 4
  %17 = alloca i32, align 4
  %18 = alloca i32, align 4
  %19 = alloca i32, align 4
  %20 = alloca i32, align 4
  %21 = alloca ptr, align 8
  %22 = alloca i64, align 8
  %23 = alloca [26 x i8], align 16
  %24 = alloca i32, align 4
  %25 = alloca i32, align 4
  %26 = alloca i32, align 4
  %27 = alloca i32, align 4
  %28 = alloca i32, align 4
  store ptr %0, ptr %11, align 8, !tbaa !16
  store ptr %1, ptr %12, align 8, !tbaa !16
  store ptr %2, ptr %13, align 8, !tbaa !18
  store ptr %3, ptr %14, align 8, !tbaa !18
  store i64 %4, ptr %15, align 8, !tbaa !14
  store i32 %5, ptr %16, align 4, !tbaa !10
  store i32 %6, ptr %17, align 4, !tbaa !10
  store i32 %7, ptr %18, align 4, !tbaa !10
  store i32 %8, ptr %19, align 4, !tbaa !10
  call void @llvm.lifetime.start.p0(i64 4, ptr %20) #7
  store i32 0, ptr %20, align 4, !tbaa !10
  call void @llvm.lifetime.start.p0(i64 8, ptr %21) #7
  store ptr @.str.1, ptr %21, align 8, !tbaa !8
  call void @llvm.lifetime.start.p0(i64 8, ptr %22) #7
  call void @llvm.lifetime.start.p0(i64 26, ptr %23) #7
  call void @llvm.lifetime.start.p0(i64 4, ptr %24) #7
  store i32 0, ptr %24, align 4, !tbaa !10
  call void @llvm.lifetime.start.p0(i64 4, ptr %25) #7
  store i32 0, ptr %25, align 4, !tbaa !10
  call void @llvm.lifetime.start.p0(i64 4, ptr %26) #7
  store i32 0, ptr %26, align 4, !tbaa !10
  call void @llvm.lifetime.start.p0(i64 4, ptr %27) #7
  store i32 0, ptr %27, align 4, !tbaa !10
  %29 = load i32, ptr %18, align 4, !tbaa !10
  %30 = icmp slt i32 %29, 0
  br i1 %30, label %31, label %32

31:                                               ; preds = %9
  store i32 0, ptr %18, align 4, !tbaa !10
  br label %32

32:                                               ; preds = %31, %9
  %33 = load i64, ptr %15, align 8, !tbaa !14
  store i64 %33, ptr %22, align 8, !tbaa !14
  %34 = load i32, ptr %19, align 4, !tbaa !10
  %35 = and i32 %34, 64
  %36 = icmp ne i32 %35, 0
  br i1 %36, label %56, label %37

37:                                               ; preds = %32
  %38 = load i64, ptr %15, align 8, !tbaa !14
  %39 = icmp slt i64 %38, 0
  br i1 %39, label %40, label %43

40:                                               ; preds = %37
  store i32 45, ptr %20, align 4, !tbaa !10
  %41 = load i64, ptr %15, align 8, !tbaa !14
  %42 = sub i64 0, %41
  store i64 %42, ptr %22, align 8, !tbaa !14
  br label %55

43:                                               ; preds = %37
  %44 = load i32, ptr %19, align 4, !tbaa !10
  %45 = and i32 %44, 2
  %46 = icmp ne i32 %45, 0
  br i1 %46, label %47, label %48

47:                                               ; preds = %43
  store i32 43, ptr %20, align 4, !tbaa !10
  br label %54

48:                                               ; preds = %43
  %49 = load i32, ptr %19, align 4, !tbaa !10
  %50 = and i32 %49, 4
  %51 = icmp ne i32 %50, 0
  br i1 %51, label %52, label %53

52:                                               ; preds = %48
  store i32 32, ptr %20, align 4, !tbaa !10
  br label %53

53:                                               ; preds = %52, %48
  br label %54

54:                                               ; preds = %53, %47
  br label %55

55:                                               ; preds = %54, %40
  br label %56

56:                                               ; preds = %55, %32
  %57 = load i32, ptr %19, align 4, !tbaa !10
  %58 = and i32 %57, 8
  %59 = icmp ne i32 %58, 0
  br i1 %59, label %60, label %69

60:                                               ; preds = %56
  %61 = load i32, ptr %16, align 4, !tbaa !10
  %62 = icmp eq i32 %61, 8
  br i1 %62, label %63, label %64

63:                                               ; preds = %60
  store ptr @.str.2, ptr %21, align 8, !tbaa !8
  br label %64

64:                                               ; preds = %63, %60
  %65 = load i32, ptr %16, align 4, !tbaa !10
  %66 = icmp eq i32 %65, 16
  br i1 %66, label %67, label %68

67:                                               ; preds = %64
  store ptr @.str.3, ptr %21, align 8, !tbaa !8
  br label %68

68:                                               ; preds = %67, %64
  br label %69

69:                                               ; preds = %68, %56
  %70 = load i32, ptr %19, align 4, !tbaa !10
  %71 = and i32 %70, 32
  %72 = icmp ne i32 %71, 0
  br i1 %72, label %73, label %74

73:                                               ; preds = %69
  store i32 1, ptr %27, align 4, !tbaa !10
  br label %74

74:                                               ; preds = %73, %69
  br label %75

75:                                               ; preds = %99, %74
  %76 = load i32, ptr %27, align 4, !tbaa !10
  %77 = icmp ne i32 %76, 0
  %78 = select i1 %77, ptr @.str.4, ptr @.str.5
  %79 = load i64, ptr %22, align 8, !tbaa !14
  %80 = load i32, ptr %16, align 4, !tbaa !10
  %81 = zext i32 %80 to i64
  %82 = urem i64 %79, %81
  %83 = getelementptr inbounds nuw i8, ptr %78, i64 %82
  %84 = load i8, ptr %83, align 1, !tbaa !22
  %85 = load i32, ptr %24, align 4, !tbaa !10
  %86 = add nsw i32 %85, 1
  store i32 %86, ptr %24, align 4, !tbaa !10
  %87 = sext i32 %85 to i64
  %88 = getelementptr inbounds [26 x i8], ptr %23, i64 0, i64 %87
  store i8 %84, ptr %88, align 1, !tbaa !22
  %89 = load i64, ptr %22, align 8, !tbaa !14
  %90 = load i32, ptr %16, align 4, !tbaa !10
  %91 = zext i32 %90 to i64
  %92 = udiv i64 %89, %91
  store i64 %92, ptr %22, align 8, !tbaa !14
  br label %93

93:                                               ; preds = %75
  %94 = load i64, ptr %22, align 8, !tbaa !14
  %95 = icmp ne i64 %94, 0
  br i1 %95, label %96, label %99

96:                                               ; preds = %93
  %97 = load i32, ptr %24, align 4, !tbaa !10
  %98 = icmp slt i32 %97, 26
  br label %99

99:                                               ; preds = %96, %93
  %100 = phi i1 [ false, %93 ], [ %98, %96 ]
  br i1 %100, label %75, label %101, !llvm.loop !28

101:                                              ; preds = %99
  %102 = load i32, ptr %24, align 4, !tbaa !10
  %103 = sext i32 %102 to i64
  %104 = icmp eq i64 %103, 26
  br i1 %104, label %105, label %108

105:                                              ; preds = %101
  %106 = load i32, ptr %24, align 4, !tbaa !10
  %107 = add nsw i32 %106, -1
  store i32 %107, ptr %24, align 4, !tbaa !10
  br label %108

108:                                              ; preds = %105, %101
  %109 = load i32, ptr %24, align 4, !tbaa !10
  %110 = sext i32 %109 to i64
  %111 = getelementptr inbounds [26 x i8], ptr %23, i64 0, i64 %110
  store i8 0, ptr %111, align 1, !tbaa !22
  %112 = load i32, ptr %18, align 4, !tbaa !10
  %113 = load i32, ptr %24, align 4, !tbaa !10
  %114 = sub nsw i32 %112, %113
  store i32 %114, ptr %26, align 4, !tbaa !10
  %115 = load i32, ptr %17, align 4, !tbaa !10
  %116 = load i32, ptr %18, align 4, !tbaa !10
  %117 = load i32, ptr %24, align 4, !tbaa !10
  %118 = icmp sge i32 %116, %117
  br i1 %118, label %119, label %121

119:                                              ; preds = %108
  %120 = load i32, ptr %18, align 4, !tbaa !10
  br label %123

121:                                              ; preds = %108
  %122 = load i32, ptr %24, align 4, !tbaa !10
  br label %123

123:                                              ; preds = %121, %119
  %124 = phi i32 [ %120, %119 ], [ %122, %121 ]
  %125 = sub nsw i32 %115, %124
  %126 = load i32, ptr %20, align 4, !tbaa !10
  %127 = icmp ne i32 %126, 0
  %128 = select i1 %127, i32 1, i32 0
  %129 = sub nsw i32 %125, %128
  %130 = sext i32 %129 to i64
  %131 = load ptr, ptr %21, align 8, !tbaa !8
  %132 = call i64 @strlen(ptr noundef %131) #8
  %133 = sub i64 %130, %132
  %134 = trunc i64 %133 to i32
  store i32 %134, ptr %25, align 4, !tbaa !10
  %135 = load i32, ptr %26, align 4, !tbaa !10
  %136 = icmp slt i32 %135, 0
  br i1 %136, label %137, label %138

137:                                              ; preds = %123
  store i32 0, ptr %26, align 4, !tbaa !10
  br label %138

138:                                              ; preds = %137, %123
  %139 = load i32, ptr %25, align 4, !tbaa !10
  %140 = icmp slt i32 %139, 0
  br i1 %140, label %141, label %142

141:                                              ; preds = %138
  store i32 0, ptr %25, align 4, !tbaa !10
  br label %142

142:                                              ; preds = %141, %138
  %143 = load i32, ptr %19, align 4, !tbaa !10
  %144 = and i32 %143, 16
  %145 = icmp ne i32 %144, 0
  br i1 %145, label %146, label %156

146:                                              ; preds = %142
  %147 = load i32, ptr %26, align 4, !tbaa !10
  %148 = load i32, ptr %25, align 4, !tbaa !10
  %149 = icmp sge i32 %147, %148
  br i1 %149, label %150, label %152

150:                                              ; preds = %146
  %151 = load i32, ptr %26, align 4, !tbaa !10
  br label %154

152:                                              ; preds = %146
  %153 = load i32, ptr %25, align 4, !tbaa !10
  br label %154

154:                                              ; preds = %152, %150
  %155 = phi i32 [ %151, %150 ], [ %153, %152 ]
  store i32 %155, ptr %26, align 4, !tbaa !10
  store i32 0, ptr %25, align 4, !tbaa !10
  br label %156

156:                                              ; preds = %154, %142
  %157 = load i32, ptr %19, align 4, !tbaa !10
  %158 = and i32 %157, 1
  %159 = icmp ne i32 %158, 0
  br i1 %159, label %160, label %163

160:                                              ; preds = %156
  %161 = load i32, ptr %25, align 4, !tbaa !10
  %162 = sub nsw i32 0, %161
  store i32 %162, ptr %25, align 4, !tbaa !10
  br label %163

163:                                              ; preds = %160, %156
  br label %164

164:                                              ; preds = %175, %163
  %165 = load i32, ptr %25, align 4, !tbaa !10
  %166 = icmp sgt i32 %165, 0
  br i1 %166, label %167, label %178

167:                                              ; preds = %164
  %168 = load ptr, ptr %11, align 8, !tbaa !16
  %169 = load ptr, ptr %12, align 8, !tbaa !16
  %170 = load ptr, ptr %13, align 8, !tbaa !18
  %171 = load ptr, ptr %14, align 8, !tbaa !18
  %172 = call i32 @doapr_outch(ptr noundef %168, ptr noundef %169, ptr noundef %170, ptr noundef %171, i32 noundef 32)
  %173 = icmp ne i32 %172, 0
  br i1 %173, label %175, label %174

174:                                              ; preds = %167
  store i32 0, ptr %10, align 4
  store i32 1, ptr %28, align 4
  br label %264

175:                                              ; preds = %167
  %176 = load i32, ptr %25, align 4, !tbaa !10
  %177 = add nsw i32 %176, -1
  store i32 %177, ptr %25, align 4, !tbaa !10
  br label %164, !llvm.loop !29

178:                                              ; preds = %164
  %179 = load i32, ptr %20, align 4, !tbaa !10
  %180 = icmp ne i32 %179, 0
  br i1 %180, label %181, label %191

181:                                              ; preds = %178
  %182 = load ptr, ptr %11, align 8, !tbaa !16
  %183 = load ptr, ptr %12, align 8, !tbaa !16
  %184 = load ptr, ptr %13, align 8, !tbaa !18
  %185 = load ptr, ptr %14, align 8, !tbaa !18
  %186 = load i32, ptr %20, align 4, !tbaa !10
  %187 = call i32 @doapr_outch(ptr noundef %182, ptr noundef %183, ptr noundef %184, ptr noundef %185, i32 noundef %186)
  %188 = icmp ne i32 %187, 0
  br i1 %188, label %190, label %189

189:                                              ; preds = %181
  store i32 0, ptr %10, align 4
  store i32 1, ptr %28, align 4
  br label %264

190:                                              ; preds = %181
  br label %191

191:                                              ; preds = %190, %178
  br label %192

192:                                              ; preds = %207, %191
  %193 = load ptr, ptr %21, align 8, !tbaa !8
  %194 = load i8, ptr %193, align 1, !tbaa !22
  %195 = icmp ne i8 %194, 0
  br i1 %195, label %196, label %210

196:                                              ; preds = %192
  %197 = load ptr, ptr %11, align 8, !tbaa !16
  %198 = load ptr, ptr %12, align 8, !tbaa !16
  %199 = load ptr, ptr %13, align 8, !tbaa !18
  %200 = load ptr, ptr %14, align 8, !tbaa !18
  %201 = load ptr, ptr %21, align 8, !tbaa !8
  %202 = load i8, ptr %201, align 1, !tbaa !22
  %203 = sext i8 %202 to i32
  %204 = call i32 @doapr_outch(ptr noundef %197, ptr noundef %198, ptr noundef %199, ptr noundef %200, i32 noundef %203)
  %205 = icmp ne i32 %204, 0
  br i1 %205, label %207, label %206

206:                                              ; preds = %196
  store i32 0, ptr %10, align 4
  store i32 1, ptr %28, align 4
  br label %264

207:                                              ; preds = %196
  %208 = load ptr, ptr %21, align 8, !tbaa !8
  %209 = getelementptr inbounds nuw i8, ptr %208, i32 1
  store ptr %209, ptr %21, align 8, !tbaa !8
  br label %192, !llvm.loop !30

210:                                              ; preds = %192
  %211 = load i32, ptr %26, align 4, !tbaa !10
  %212 = icmp sgt i32 %211, 0
  br i1 %212, label %213, label %229

213:                                              ; preds = %210
  br label %214

214:                                              ; preds = %225, %213
  %215 = load i32, ptr %26, align 4, !tbaa !10
  %216 = icmp sgt i32 %215, 0
  br i1 %216, label %217, label %228

217:                                              ; preds = %214
  %218 = load ptr, ptr %11, align 8, !tbaa !16
  %219 = load ptr, ptr %12, align 8, !tbaa !16
  %220 = load ptr, ptr %13, align 8, !tbaa !18
  %221 = load ptr, ptr %14, align 8, !tbaa !18
  %222 = call i32 @doapr_outch(ptr noundef %218, ptr noundef %219, ptr noundef %220, ptr noundef %221, i32 noundef 48)
  %223 = icmp ne i32 %222, 0
  br i1 %223, label %225, label %224

224:                                              ; preds = %217
  store i32 0, ptr %10, align 4
  store i32 1, ptr %28, align 4
  br label %264

225:                                              ; preds = %217
  %226 = load i32, ptr %26, align 4, !tbaa !10
  %227 = add nsw i32 %226, -1
  store i32 %227, ptr %26, align 4, !tbaa !10
  br label %214, !llvm.loop !31

228:                                              ; preds = %214
  br label %229

229:                                              ; preds = %228, %210
  br label %230

230:                                              ; preds = %247, %229
  %231 = load i32, ptr %24, align 4, !tbaa !10
  %232 = icmp sgt i32 %231, 0
  br i1 %232, label %233, label %248

233:                                              ; preds = %230
  %234 = load ptr, ptr %11, align 8, !tbaa !16
  %235 = load ptr, ptr %12, align 8, !tbaa !16
  %236 = load ptr, ptr %13, align 8, !tbaa !18
  %237 = load ptr, ptr %14, align 8, !tbaa !18
  %238 = load i32, ptr %24, align 4, !tbaa !10
  %239 = add nsw i32 %238, -1
  store i32 %239, ptr %24, align 4, !tbaa !10
  %240 = sext i32 %239 to i64
  %241 = getelementptr inbounds [26 x i8], ptr %23, i64 0, i64 %240
  %242 = load i8, ptr %241, align 1, !tbaa !22
  %243 = sext i8 %242 to i32
  %244 = call i32 @doapr_outch(ptr noundef %234, ptr noundef %235, ptr noundef %236, ptr noundef %237, i32 noundef %243)
  %245 = icmp ne i32 %244, 0
  br i1 %245, label %247, label %246

246:                                              ; preds = %233
  store i32 0, ptr %10, align 4
  store i32 1, ptr %28, align 4
  br label %264

247:                                              ; preds = %233
  br label %230, !llvm.loop !32

248:                                              ; preds = %230
  br label %249

249:                                              ; preds = %260, %248
  %250 = load i32, ptr %25, align 4, !tbaa !10
  %251 = icmp slt i32 %250, 0
  br i1 %251, label %252, label %263

252:                                              ; preds = %249
  %253 = load ptr, ptr %11, align 8, !tbaa !16
  %254 = load ptr, ptr %12, align 8, !tbaa !16
  %255 = load ptr, ptr %13, align 8, !tbaa !18
  %256 = load ptr, ptr %14, align 8, !tbaa !18
  %257 = call i32 @doapr_outch(ptr noundef %253, ptr noundef %254, ptr noundef %255, ptr noundef %256, i32 noundef 32)
  %258 = icmp ne i32 %257, 0
  br i1 %258, label %260, label %259

259:                                              ; preds = %252
  store i32 0, ptr %10, align 4
  store i32 1, ptr %28, align 4
  br label %264

260:                                              ; preds = %252
  %261 = load i32, ptr %25, align 4, !tbaa !10
  %262 = add nsw i32 %261, 1
  store i32 %262, ptr %25, align 4, !tbaa !10
  br label %249, !llvm.loop !33

263:                                              ; preds = %249
  store i32 1, ptr %10, align 4
  store i32 1, ptr %28, align 4
  br label %264

264:                                              ; preds = %263, %259, %246, %224, %206, %189, %174
  call void @llvm.lifetime.end.p0(i64 4, ptr %27) #7
  call void @llvm.lifetime.end.p0(i64 4, ptr %26) #7
  call void @llvm.lifetime.end.p0(i64 4, ptr %25) #7
  call void @llvm.lifetime.end.p0(i64 4, ptr %24) #7
  call void @llvm.lifetime.end.p0(i64 26, ptr %23) #7
  call void @llvm.lifetime.end.p0(i64 8, ptr %22) #7
  call void @llvm.lifetime.end.p0(i64 8, ptr %21) #7
  call void @llvm.lifetime.end.p0(i64 4, ptr %20) #7
  %265 = load i32, ptr %10, align 4
  ret i32 %265
}