; Function Attrs: nounwind uwtable
define internal fastcc range(i32 0, 2) i32 @fmtint(ptr noundef nonnull captures(none) %0, ptr noundef captures(address_is_null) %1, ptr noundef nonnull captures(none) %2, ptr noundef nonnull captures(none) %3, i64 noundef %4, i32 noundef range(i32 8, 17) %5, i32 noundef %6, i32 noundef %7, i32 noundef %8) unnamed_addr #0 {
  %10 = alloca [26 x i8], align 16
  call void @llvm.lifetime.start.p0(i64 26, ptr nonnull %10) #7
  %spec.store.select = tail call i32 @llvm.smax.i32(i32 %7, i32 0)
  %11 = and i32 %8, 64
  %.not = icmp eq i32 %11, 0
  br i1 %.not, label %12, label %20

12:                                               ; preds = %9
  %13 = icmp slt i64 %4, 0
  br i1 %13, label %14, label %16

14:                                               ; preds = %12
  %15 = sub i64 0, %4
  br label %20

16:                                               ; preds = %12
  %17 = and i32 %8, 2
  %.not99 = icmp eq i32 %17, 0
  br i1 %.not99, label %18, label %20

18:                                               ; preds = %16
  %19 = and i32 %8, 4
  %.not100 = icmp eq i32 %19, 0
  %spec.select116 = shl nuw nsw i32 %19, 3
  br label %20

20:                                               ; preds = %18, %16, %14, %9
  %.not105 = phi i1 [ true, %9 ], [ false, %14 ], [ false, %16 ], [ %.not100, %18 ]
  %.093 = phi i32 [ 0, %9 ], [ 45, %14 ], [ 43, %16 ], [ %spec.select116, %18 ]
  %.088 = phi i64 [ %4, %9 ], [ %15, %14 ], [ %4, %16 ], [ %4, %18 ]
  %21 = and i32 %8, 8
  %22 = icmp eq i32 %5, 8
  %spec.select117 = select i1 %22, ptr @.str.2, ptr @.str.1
  %23 = icmp eq i32 %5, 16
  %spec.select119 = select i1 %23, ptr @.str.3, ptr %spec.select117
  %24 = and i32 %8, 32
  %.not102 = icmp eq i32 %24, 0
  %25 = select i1 %.not102, ptr @.str.5, ptr @.str.4
  %26 = zext nneg i32 %5 to i64
  br label %27

27:                                               ; preds = %27, %20
  %indvars.iv = phi i64 [ %indvars.iv.next, %27 ], [ 0, %20 ]
  %.189 = phi i64 [ %32, %27 ], [ %.088, %20 ]
  %28 = urem i64 %.189, %26
  %29 = getelementptr inbounds nuw i8, ptr %25, i64 %28
  %30 = load i8, ptr %29, align 1, !tbaa !10
  %indvars.iv.next = add nuw nsw i64 %indvars.iv, 1
  %31 = getelementptr inbounds nuw [26 x i8], ptr %10, i64 0, i64 %indvars.iv
  store i8 %30, ptr %31, align 1, !tbaa !10
  %32 = udiv i64 %.189, %26
  %33 = icmp uge i64 %.189, %26
  %34 = icmp samesign ult i64 %indvars.iv, 25
  %35 = select i1 %33, i1 %34, i1 false
  br i1 %35, label %27, label %36, !llvm.loop !26

36:                                               ; preds = %27
  %.not101 = icmp eq i32 %21, 0
  %.090 = select i1 %.not101, ptr @.str.1, ptr %spec.select119
  %37 = icmp eq i64 %indvars.iv.next, 26
  %spec.select118.v = select i1 %37, i64 %indvars.iv, i64 %indvars.iv.next
  %spec.select118 = trunc i64 %spec.select118.v to i32
  %38 = and i64 %spec.select118.v, 4294967295
  %39 = getelementptr inbounds nuw [26 x i8], ptr %10, i64 0, i64 %38
  store i8 0, ptr %39, align 1, !tbaa !10
  %40 = sub nsw i32 %spec.store.select, %spec.select118
  %41 = tail call i32 @llvm.smax.i32(i32 %spec.store.select, i32 %spec.select118)
  %not..not105 = xor i1 %.not105, true
  %.neg = sext i1 %not..not105 to i32
  %42 = tail call i64 @strlen(ptr noundef nonnull dereferenceable(1) %.090) #8
  %43 = trunc i64 %42 to i32
  %.neg123 = add i32 %6, %.neg
  %44 = add i32 %41, %43
  %45 = sub i32 %.neg123, %44
  %spec.store.select3 = tail call i32 @llvm.smax.i32(i32 %40, i32 0)
  %spec.store.select1 = tail call i32 @llvm.smax.i32(i32 %45, i32 0)
  %46 = and i32 %8, 16
  %.not106 = icmp eq i32 %46, 0
  %47 = tail call i32 @llvm.umax.i32(i32 %spec.store.select3, i32 %spec.store.select1)
  %.083 = select i1 %.not106, i32 %spec.store.select1, i32 0
  %.082 = select i1 %.not106, i32 %spec.store.select3, i32 %47
  %48 = and i32 %8, 1
  %.not108 = icmp eq i32 %48, 0
  %49 = sub nsw i32 0, %.083
  %spec.select = select i1 %.not108, i32 %.083, i32 %49
  %50 = icmp sgt i32 %spec.select, 0
  br i1 %50, label %.lr.ph, label %select.unfold._crit_edge

.lr.ph:                                           ; preds = %36, %select.unfold
  %.2131 = phi i32 [ %52, %select.unfold ], [ %spec.select, %36 ]
  %51 = tail call fastcc i32 @doapr_outch(ptr noundef %0, ptr noundef %1, ptr noundef %2, ptr noundef %3, i32 noundef 32)
  %.not115 = icmp eq i32 %51, 0
  br i1 %.not115, label %.loopexit, label %select.unfold

select.unfold:                                    ; preds = %.lr.ph
  %52 = add nsw i32 %.2131, -1
  %53 = icmp sgt i32 %.2131, 1
  br i1 %53, label %.lr.ph, label %select.unfold._crit_edge, !llvm.loop !27

select.unfold._crit_edge:                         ; preds = %select.unfold, %36
  %.2.lcssa = phi i32 [ %spec.select, %36 ], [ 0, %select.unfold ]
  br i1 %.not105, label %56, label %54

54:                                               ; preds = %select.unfold._crit_edge
  %55 = tail call fastcc i32 @doapr_outch(ptr noundef %0, ptr noundef %1, ptr noundef %2, ptr noundef %3, i32 noundef %.093)
  %.not109 = icmp eq i32 %55, 0
  br i1 %.not109, label %.loopexit, label %56

56:                                               ; preds = %54, %select.unfold._crit_edge
  %57 = load i8, ptr %.090, align 1, !tbaa !10
  %.not110132 = icmp eq i8 %57, 0
  br i1 %.not110132, label %._crit_edge, label %.lr.ph134

58:                                               ; preds = %.lr.ph134
  %59 = getelementptr inbounds nuw i8, ptr %.292133, i64 1
  %60 = load i8, ptr %59, align 1, !tbaa !10
  %.not110 = icmp eq i8 %60, 0
  br i1 %.not110, label %._crit_edge, label %.lr.ph134, !llvm.loop !28

.lr.ph134:                                        ; preds = %56, %58
  %61 = phi i8 [ %60, %58 ], [ %57, %56 ]
  %.292133 = phi ptr [ %59, %58 ], [ %.090, %56 ]
  %62 = sext i8 %61 to i32
  %63 = tail call fastcc i32 @doapr_outch(ptr noundef %0, ptr noundef %1, ptr noundef %2, ptr noundef %3, i32 noundef %62)
  %.not114 = icmp eq i32 %63, 0
  br i1 %.not114, label %.loopexit, label %58

._crit_edge:                                      ; preds = %58, %56
  %.not120 = icmp eq i32 %.082, 0
  br i1 %.not120, label %.loopexit127.preheader, label %.preheader125

.preheader125:                                    ; preds = %._crit_edge, %65
  %.1 = phi i32 [ %66, %65 ], [ %.082, %._crit_edge ]
  %64 = tail call fastcc i32 @doapr_outch(ptr noundef %0, ptr noundef %1, ptr noundef %2, ptr noundef %3, i32 noundef 48)
  %.not111 = icmp eq i32 %64, 0
  br i1 %.not111, label %.loopexit, label %65

65:                                               ; preds = %.preheader125
  %66 = add nsw i32 %.1, -1
  %.old2 = icmp sgt i32 %.1, 1
  br i1 %.old2, label %.preheader125, label %.loopexit127.preheader

.loopexit127.preheader:                           ; preds = %65, %._crit_edge
  br label %.loopexit127

.loopexit127:                                     ; preds = %.loopexit127.preheader, %70
  %indvars.iv146 = phi i64 [ %71, %70 ], [ %38, %.loopexit127.preheader ]
  %67 = trunc nuw i64 %indvars.iv146 to i32
  %68 = icmp sgt i32 %67, 0
  br i1 %68, label %70, label %.preheader

.preheader:                                       ; preds = %.loopexit127
  %69 = icmp slt i32 %.2.lcssa, 0
  br i1 %69, label %.lr.ph136, label %.loopexit

70:                                               ; preds = %.loopexit127
  %71 = add nsw i64 %indvars.iv146, -1
  %72 = getelementptr inbounds nuw [26 x i8], ptr %10, i64 0, i64 %71
  %73 = load i8, ptr %72, align 1, !tbaa !10
  %74 = sext i8 %73 to i32
  %75 = tail call fastcc i32 @doapr_outch(ptr noundef %0, ptr noundef %1, ptr noundef %2, ptr noundef %3, i32 noundef %74)
  %.not113 = icmp eq i32 %75, 0
  br i1 %.not113, label %.loopexit, label %.loopexit127, !llvm.loop !29

76:                                               ; preds = %.lr.ph136
  %77 = add i32 %.3135, 1
  %exitcond.not = icmp eq i32 %77, 0
  br i1 %exitcond.not, label %.loopexit, label %.lr.ph136, !llvm.loop !30

.lr.ph136:                                        ; preds = %.preheader, %76
  %.3135 = phi i32 [ %77, %76 ], [ %.2.lcssa, %.preheader ]
  %78 = tail call fastcc i32 @doapr_outch(ptr noundef %0, ptr noundef %1, ptr noundef %2, ptr noundef %3, i32 noundef 32)
  %.not112 = icmp eq i32 %78, 0
  br i1 %.not112, label %.loopexit, label %76

.loopexit:                                        ; preds = %.lr.ph, %.lr.ph134, %.preheader125, %70, %.lr.ph136, %76, %.preheader, %54
  %.094 = phi i32 [ 0, %54 ], [ 1, %.preheader ], [ 0, %.lr.ph136 ], [ 1, %76 ], [ 0, %70 ], [ 0, %.preheader125 ], [ 0, %.lr.ph134 ], [ 0, %.lr.ph ]
  call void @llvm.lifetime.end.p0(i64 26, ptr nonnull %10) #7
  ret i32 %.094
}